target datalayout = "e-m:e-p270:32:32-p271:32:32-p272:64:64-i64:64-i128:128-f80:128-n8:16:32:64-S128"
target triple = "x86_64-pc-linux-gnu"

%struct.expert_field = type { i32, i32 }

@hf_gsm_a_extension = external global i32, align 4
@hf_gsm_a_dtap_coding_scheme = internal global i32 0, align 4
@hf_gsm_a_dtap_add_ci = internal global i32 0, align 4
@hf_gsm_a_dtap_number_of_spare_bits = internal global i32 0, align 4
@hf_gsm_a_dtap_text_string = internal global i32 0, align 4
@ei_gsm_a_dtap_text_string_not_multiple_of_7 = internal global %struct.expert_field zeroinitializer, align 4
@ei_gsm_a_dtap_coding_scheme = internal global %struct.expert_field zeroinitializer, align 4

; Function Attrs: null_pointer_is_valid sspstrong uwtable
define internal zeroext i16 @de_network_name(ptr noundef %0, ptr noundef %1, ptr noundef %2, i32 noundef %3, i32 noundef %4, ptr noundef %5, i32 noundef %6) #1 {
  %8 = alloca i16, align 2
  %9 = alloca ptr, align 8
  %10 = alloca ptr, align 8
  %11 = alloca ptr, align 8
  %12 = alloca i32, align 4
  %13 = alloca i32, align 4
  %14 = alloca ptr, align 8
  %15 = alloca i32, align 4
  %16 = alloca i8, align 1
  %17 = alloca i32, align 4
  %18 = alloca i8, align 1
  %19 = alloca i8, align 1
  %20 = alloca i32, align 4
  %21 = alloca ptr, align 8
  %22 = alloca i32, align 4
  store ptr %0, ptr %9, align 8
  store ptr %1, ptr %10, align 8
  store ptr %2, ptr %11, align 8
  store i32 %3, ptr %12, align 4
  store i32 %4, ptr %13, align 4
  store ptr %5, ptr %14, align 8
  store i32 %6, ptr %15, align 4
  call void @llvm.lifetime.start.p0(i64 1, ptr %16) #7
  call void @llvm.lifetime.start.p0(i64 4, ptr %17) #7
  call void @llvm.lifetime.start.p0(i64 1, ptr %18) #7
  call void @llvm.lifetime.start.p0(i64 1, ptr %19) #7
  call void @llvm.lifetime.start.p0(i64 4, ptr %20) #7
  call void @llvm.lifetime.start.p0(i64 8, ptr %21) #7
  %23 = load i32, ptr %12, align 4
  store i32 %23, ptr %17, align 4
  %24 = load ptr, ptr %9, align 8
  %25 = load i32, ptr %17, align 4
  %26 = call zeroext i8 @tvb_get_uint8(ptr noundef %24, i32 noundef %25)
  store i8 %26, ptr %16, align 1
  %27 = load ptr, ptr %10, align 8
  %28 = load i32, ptr @hf_gsm_a_extension, align 4
  %29 = load ptr, ptr %9, align 8
  %30 = load i32, ptr %17, align 4
  %31 = call ptr @proto_tree_add_item(ptr noundef %27, i32 noundef %28, ptr noundef %29, i32 noundef %30, i32 noundef 1, i32 noundef 0)
  %32 = load i8, ptr %16, align 1
  %33 = zext i8 %32 to i32
  %34 = and i32 %33, 112
  %35 = ashr i32 %34, 4
  %36 = trunc i32 %35 to i8
  store i8 %36, ptr %18, align 1
  %37 = load ptr, ptr %10, align 8
  %38 = load i32, ptr @hf_gsm_a_dtap_coding_scheme, align 4
  %39 = load ptr, ptr %9, align 8
  %40 = load i32, ptr %17, align 4
  %41 = call ptr @proto_tree_add_item(ptr noundef %37, i32 noundef %38, ptr noundef %39, i32 noundef %40, i32 noundef 1, i32 noundef 0)
  %42 = load ptr, ptr %10, align 8
  %43 = load i32, ptr @hf_gsm_a_dtap_add_ci, align 4
  %44 = load ptr, ptr %9, align 8
  %45 = load i32, ptr %17, align 4
  %46 = call ptr @proto_tree_add_item(ptr noundef %42, i32 noundef %43, ptr noundef %44, i32 noundef %45, i32 noundef 1, i32 noundef 0)
  %47 = load i8, ptr %16, align 1
  %48 = zext i8 %47 to i32
  %49 = and i32 %48, 7
  %50 = trunc i32 %49 to i8
  store i8 %50, ptr %19, align 1
  %51 = load ptr, ptr %10, align 8
  %52 = load i32, ptr @hf_gsm_a_dtap_number_of_spare_bits, align 4
  %53 = load ptr, ptr %9, align 8
  %54 = load i32, ptr %17, align 4
  %55 = call ptr @proto_tree_add_item(ptr noundef %51, i32 noundef %52, ptr noundef %53, i32 noundef %54, i32 noundef 1, i32 noundef 0)
  store ptr %55, ptr %21, align 8
  %56 = load i32, ptr %17, align 4
  %57 = add i32 %56, 1
  store i32 %57, ptr %17, align 4
  %58 = load i32, ptr %13, align 4
  %59 = load i32, ptr %17, align 4
  %60 = load i32, ptr %12, align 4
  %61 = sub i32 %59, %60
  %62 = icmp ule i32 %58, %61
  br i1 %62, label %63, label %66

63:                                               ; preds = %7
  %64 = load i32, ptr %13, align 4
  %65 = trunc i32 %64 to i16
  store i16 %65, ptr %8, align 2
  store i32 1, ptr %22, align 4
  br label %115

66:                                               ; preds = %7
  %67 = load i8, ptr %18, align 1
  %68 = zext i8 %67 to i32
  switch i32 %68, label %104 [
    i32 0, label %69
    i32 1, label %96
  ]

69:                                               ; preds = %66
  %70 = load i32, ptr %13, align 4
  %71 = sub i32 %70, 1
  %72 = shl i32 %71, 3
  %73 = load i8, ptr %19, align 1
  %74 = zext i8 %73 to i32
  %75 = sub i32 %72, %74
  store i32 %75, ptr %20, align 4
  %76 = load i8, ptr %19, align 1
  %77 = zext i8 %76 to i32
  %78 = icmp ne i32 %77, 0
  br i1 %78, label %79, label %87

79:                                               ; preds = %69
  %80 = load i32, ptr %20, align 4
  %81 = urem i32 %80, 7
  %82 = icmp ne i32 %81, 0
  br i1 %82, label %83, label %87

83:                                               ; preds = %79
  %84 = load ptr, ptr %11, align 8
  %85 = load ptr, ptr %21, align 8
  %86 = call ptr @expert_add_info(ptr noundef %84, ptr noundef %85, ptr noundef @ei_gsm_a_dtap_text_string_not_multiple_of_7)
  br label %87

87:                                               ; preds = %83, %79, %69
  %88 = load ptr, ptr %10, align 8
  %89 = load i32, ptr @hf_gsm_a_dtap_text_string, align 4
  %90 = load ptr, ptr %9, align 8
  %91 = load i32, ptr %17, align 4
  %92 = shl i32 %91, 3
  %93 = load i32, ptr %20, align 4
  %94 = udiv i32 %93, 7
  %95 = call ptr @proto_tree_add_ts_23_038_7bits_packed_item(ptr noundef %88, i32 noundef %89, ptr noundef %90, i32 noundef %92, i32 noundef %94)
  br label %112

96:                                               ; preds = %66
  %97 = load ptr, ptr %10, align 8
  %98 = load i32, ptr @hf_gsm_a_dtap_text_string, align 4
  %99 = load ptr, ptr %9, align 8
  %100 = load i32, ptr %17, align 4
  %101 = load i32, ptr %13, align 4
  %102 = sub i32 %101, 1
  %103 = call ptr @proto_tree_add_item(ptr noundef %97, i32 noundef %98, ptr noundef %99, i32 noundef %100, i32 noundef %102, i32 noundef 6)
  br label %112

104:                                              ; preds = %66
  %105 = load ptr, ptr %10, align 8
  %106 = load ptr, ptr %11, align 8
  %107 = load ptr, ptr %9, align 8
  %108 = load i32, ptr %17, align 4
  %109 = load i32, ptr %13, align 4
  %110 = sub i32 %109, 1
  %111 = call ptr @proto_tree_add_expert(ptr noundef %105, ptr noundef %106, ptr noundef @ei_gsm_a_dtap_coding_scheme, ptr noundef %107, i32 noundef %108, i32 noundef %110)
  br label %112

112:                                              ; preds = %104, %96, %87
  %113 = load i32, ptr %13, align 4
  %114 = trunc i32 %113 to i16
  store i16 %114, ptr %8, align 2
  store i32 1, ptr %22, align 4
  br label %115

115:                                              ; preds = %112, %63
  call void @llvm.lifetime.end.p0(i64 8, ptr %21) #7
  call void @llvm.lifetime.end.p0(i64 4, ptr %20) #7
  call void @llvm.lifetime.end.p0(i64 1, ptr %19) #7
  call void @llvm.lifetime.end.p0(i64 1, ptr %18) #7
  call void @llvm.lifetime.end.p0(i64 4, ptr %17) #7
  call void @llvm.lifetime.end.p0(i64 1, ptr %16) #7
  %116 = load i16, ptr %8, align 2
  ret i16 %116
}