; Function Attrs: null_pointer_is_valid sspstrong uwtable
define internal noundef zeroext i16 @de_network_name(ptr noundef %0, ptr noundef %1, ptr noundef %2, i32 noundef %3, i32 noundef %4, ptr readnone captures(none) %5, i32 %6) #1 {
  %8 = tail call zeroext i8 @tvb_get_uint8(ptr noundef %0, i32 noundef %3)
  %9 = load i32, ptr @hf_gsm_a_extension, align 4
  %10 = tail call ptr @proto_tree_add_item(ptr noundef %1, i32 noundef %9, ptr noundef %0, i32 noundef %3, i32 noundef 1, i32 noundef 0)
  %11 = load i32, ptr @hf_gsm_a_dtap_coding_scheme, align 4
  %12 = tail call ptr @proto_tree_add_item(ptr noundef %1, i32 noundef %11, ptr noundef %0, i32 noundef %3, i32 noundef 1, i32 noundef 0)
  %13 = load i32, ptr @hf_gsm_a_dtap_add_ci, align 4
  %14 = tail call ptr @proto_tree_add_item(ptr noundef %1, i32 noundef %13, ptr noundef %0, i32 noundef %3, i32 noundef 1, i32 noundef 0)
  %15 = and i8 %8, 7
  %16 = load i32, ptr @hf_gsm_a_dtap_number_of_spare_bits, align 4
  %17 = tail call ptr @proto_tree_add_item(ptr noundef %1, i32 noundef %16, ptr noundef %0, i32 noundef %3, i32 noundef 1, i32 noundef 0)
  %18 = add i32 %3, 1
  %19 = icmp ult i32 %4, 2
  br i1 %19, label %43, label %20

20:                                               ; preds = %7
  %21 = lshr i8 %8, 4
  %22 = and i8 %21, 7
  switch i8 %22, label %40 [
    i8 0, label %23
    i8 1, label %36
  ]

23:                                               ; preds = %20
  %24 = shl i32 %4, 3
  %25 = add i32 %24, -8
  %26 = zext nneg i8 %15 to i32
  %27 = sub i32 %25, %26
  %.not = icmp eq i8 %15, 0
  %28 = urem i32 %27, 7
  %29 = udiv i32 %27, 7
  %.not44 = icmp eq i32 %28, 0
  %or.cond = select i1 %.not, i1 true, i1 %.not44
  br i1 %or.cond, label %32, label %30

30:                                               ; preds = %23
  %31 = tail call ptr @expert_add_info(ptr noundef %2, ptr noundef %17, ptr noundef nonnull @ei_gsm_a_dtap_text_string_not_multiple_of_7)
  br label %32

32:                                               ; preds = %30, %23
  %33 = load i32, ptr @hf_gsm_a_dtap_text_string, align 4
  %34 = shl i32 %18, 3
  %35 = tail call ptr @proto_tree_add_ts_23_038_7bits_packed_item(ptr noundef %1, i32 noundef %33, ptr noundef %0, i32 noundef %34, i32 noundef %29)
  br label %43

36:                                               ; preds = %20
  %37 = load i32, ptr @hf_gsm_a_dtap_text_string, align 4
  %38 = add i32 %4, -1
  %39 = tail call ptr @proto_tree_add_item(ptr noundef %1, i32 noundef %37, ptr noundef %0, i32 noundef %18, i32 noundef %38, i32 noundef 6)
  br label %43

40:                                               ; preds = %20
  %41 = add i32 %4, -1
  %42 = tail call ptr @proto_tree_add_expert(ptr noundef %1, ptr noundef %2, ptr noundef nonnull @ei_gsm_a_dtap_coding_scheme, ptr noundef %0, i32 noundef %18, i32 noundef %41)
  br label %43

43:                                               ; preds = %32, %36, %40, %7
  %.0 = trunc i32 %4 to i16
  ret i16 %.0
}